target datalayout = "e-m:e-p270:32:32-p271:32:32-p272:64:64-i64:64-i128:128-f80:128-n8:16:32:64-S128"
target triple = "x86_64-pc-linux-gnu"

%"struct.std::pair" = type { i32, i32 }

; Function Attrs: mustprogress nounwind uwtable
define linkonce_odr void @_ZNSt4pairIiiEC2IiiTnNSt9enable_ifIXaaclsr5_PCCPE22_MoveConstructiblePairIT_T0_EEclsr5_PCCPE30_ImplicitlyMoveConvertiblePairIS3_S4_EEEbE4typeELb1EEEOS3_OS4_(ptr noundef nonnull align 4 dereferenceable(8) %0, ptr noundef nonnull align 4 dereferenceable(4) %1, ptr noundef nonnull align 4 dereferenceable(4) %2) unnamed_addr #4 comdat align 2 {
  %4 = alloca ptr, align 8
  %5 = alloca ptr, align 8
  %6 = alloca ptr, align 8
  store ptr %0, ptr %4, align 8, !tbaa !124
  store ptr %1, ptr %5, align 8, !tbaa !147
  store ptr %2, ptr %6, align 8, !tbaa !147
  %7 = load ptr, ptr %4, align 8
  %8 = getelementptr inbounds nuw %"struct.std::pair", ptr %7, i32 0, i32 0
  %9 = load ptr, ptr %5, align 8, !tbaa !147
  %10 = load i32, ptr %9, align 4, !tbaa !26
  store i32 %10, ptr %8, align 4, !tbaa !126
  %11 = getelementptr inbounds nuw %"struct.std::pair", ptr %7, i32 0, i32 1
  %12 = load ptr, ptr %6, align 8, !tbaa !147
  %13 = load i32, ptr %12, align 4, !tbaa !26
  store i32 %13, ptr %11, align 4, !tbaa !128
  ret void
}

; Function Attrs: mustprogress uwtable
define noundef i32 @_ZN6icu_7716RBBITableBuilder21removeDuplicateStatesEv(ptr noundef nonnull align 8 dereferenceable(52) %0) #0 align 2 {
  %2 = alloca ptr, align 8
  %3 = alloca %"struct.std::pair", align 4
  %4 = alloca i32, align 4
  %5 = alloca i32, align 4
  %6 = alloca i32, align 4
  %7 = alloca %"struct.std::pair", align 4
  store ptr %0, ptr %2, align 8, !tbaa !3
  %8 = load ptr, ptr %2, align 8
  call void @llvm.lifetime.start.p0(i64 8, ptr %3) #11
  call void @llvm.lifetime.start.p0(i64 4, ptr %4) #11
  store i32 3, ptr %4, align 4, !tbaa !26
  call void @llvm.lifetime.start.p0(i64 4, ptr %5) #11
  store i32 0, ptr %5, align 4, !tbaa !26
  call void @_ZNSt4pairIiiEC2IiiTnNSt9enable_ifIXaaclsr5_PCCPE22_MoveConstructiblePairIT_T0_EEclsr5_PCCPE30_ImplicitlyMoveConvertiblePairIS3_S4_EEEbE4typeELb1EEEOS3_OS4_(ptr noundef nonnull align 4 dereferenceable(8) %3, ptr noundef nonnull align 4 dereferenceable(4) %4, ptr noundef nonnull align 4 dereferenceable(4) %5)
  call void @llvm.lifetime.end.p0(i64 4, ptr %5) #11
  call void @llvm.lifetime.end.p0(i64 4, ptr %4) #11
  call void @llvm.lifetime.start.p0(i64 4, ptr %6) #11
  store i32 0, ptr %6, align 4, !tbaa !26
  br label %9

9:                                                ; preds = %11, %1
  %10 = call noundef zeroext i1 @_ZN6icu_7716RBBITableBuilder18findDuplicateStateEPSt4pairIiiE(ptr noundef nonnull align 8 dereferenceable(52) %8, ptr noundef %3)
  br i1 %10, label %11, label %15

11:                                               ; preds = %9
  call void @llvm.memcpy.p0.p0.i64(ptr align 4 %7, ptr align 4 %3, i64 8, i1 false)
  %12 = load i64, ptr %7, align 4
  call void @_ZN6icu_7716RBBITableBuilder11removeStateESt4pairIiiE(ptr noundef nonnull align 8 dereferenceable(52) %8, i64 %12)
  %13 = load i32, ptr %6, align 4, !tbaa !26
  %14 = add nsw i32 %13, 1
  store i32 %14, ptr %6, align 4, !tbaa !26
  br label %9, !llvm.loop !146

15:                                               ; preds = %9
  %16 = load i32, ptr %6, align 4, !tbaa !26
  call void @llvm.lifetime.end.p0(i64 4, ptr %6) #11
  call void @llvm.lifetime.end.p0(i64 8, ptr %3) #11
  ret i32 %16
}