; Function Attrs: mustprogress uwtable
define noundef i32 @_ZN6icu_7716RBBITableBuilder21removeDuplicateStatesEv(ptr noundef nonnull readonly align 8 captures(none) dereferenceable(52) %0) local_unnamed_addr #0 align 2 {
  %2 = alloca %"struct.std::pair", align 8
  call void @llvm.lifetime.start.p0(i64 8, ptr nonnull %2) #13
  store i32 3, ptr %2, align 8, !tbaa !107
  %3 = getelementptr inbounds nuw i8, ptr %2, i64 4
  store i32 0, ptr %3, align 4, !tbaa !109
  %4 = call noundef zeroext i1 @_ZN6icu_7716RBBITableBuilder18findDuplicateStateEPSt4pairIiiE(ptr noundef nonnull align 8 dereferenceable(52) %0, ptr noundef nonnull %2)
  br i1 %4, label %.lr.ph, label %._crit_edge

.lr.ph:                                           ; preds = %1, %.lr.ph
  %.03 = phi i32 [ %5, %.lr.ph ], [ 0, %1 ]
  %.sroa.0.0.copyload = load i64, ptr %2, align 8
  tail call void @_ZN6icu_7716RBBITableBuilder11removeStateESt4pairIiiE(ptr noundef nonnull align 8 dereferenceable(52) %0, i64 %.sroa.0.0.copyload)
  %5 = add nuw nsw i32 %.03, 1
  %6 = call noundef zeroext i1 @_ZN6icu_7716RBBITableBuilder18findDuplicateStateEPSt4pairIiiE(ptr noundef nonnull align 8 dereferenceable(52) %0, ptr noundef nonnull %2)
  br i1 %6, label %.lr.ph, label %._crit_edge, !llvm.loop !126

._crit_edge:                                      ; preds = %.lr.ph, %1
  %.0.lcssa = phi i32 [ 0, %1 ], [ %5, %.lr.ph ]
  call void @llvm.lifetime.end.p0(i64 8, ptr nonnull %2) #13
  ret i32 %.0.lcssa
}